target datalayout = "e-m:e-p270:32:32-p271:32:32-p272:64:64-i64:64-i128:128-f80:128-n8:16:32:64-S128"
target triple = "x86_64-pc-linux-gnu"

%struct.agxbuf = type { %union.anon.1 }
%union.anon.1 = type { %struct.anon }
%struct.anon = type { ptr, i64, i64, [7 x i8], i8 }
%struct.Agsym_s = type { %struct.dtlink_s_, ptr, ptr, i32, i8, i8, i8 }
%struct.dtlink_s_ = type { ptr, %union.anon.0 }
%union.anon.0 = type { ptr }

@.str.136 = private unnamed_addr constant [5 x i8] c"true\00", align 1

; Function Attrs: inlinehint nounwind uwtable
define internal ptr @agxbstart(ptr noundef %0) #5 {
  %2 = alloca ptr, align 8
  store ptr %0, ptr %2, align 8, !tbaa !78
  %3 = load ptr, ptr %2, align 8, !tbaa !78
  %4 = call zeroext i1 @agxbuf_is_inline(ptr noundef %3)
  br i1 %4, label %5, label %9

5:                                                ; preds = %1
  %6 = load ptr, ptr %2, align 8, !tbaa !78
  %7 = getelementptr inbounds nuw %struct.agxbuf, ptr %6, i32 0, i32 0
  %8 = getelementptr inbounds [31 x i8], ptr %7, i64 0, i64 0
  br label %14

9:                                                ; preds = %1
  %10 = load ptr, ptr %2, align 8, !tbaa !78
  %11 = getelementptr inbounds nuw %struct.agxbuf, ptr %10, i32 0, i32 0
  %12 = getelementptr inbounds nuw %struct.anon, ptr %11, i32 0, i32 0
  %13 = load ptr, ptr %12, align 8, !tbaa !51
  br label %14

14:                                               ; preds = %9, %5
  %15 = phi ptr [ %8, %5 ], [ %13, %9 ]
  ret ptr %15
}

; Function Attrs: inlinehint nounwind uwtable
define internal void @agxbclear(ptr noundef %0) #5 {
  %2 = alloca ptr, align 8
  store ptr %0, ptr %2, align 8, !tbaa !78
  %3 = load ptr, ptr %2, align 8, !tbaa !78
  %4 = call zeroext i1 @agxbuf_is_inline(ptr noundef %3)
  br i1 %4, label %5, label %9

5:                                                ; preds = %1
  %6 = load ptr, ptr %2, align 8, !tbaa !78
  %7 = getelementptr inbounds nuw %struct.agxbuf, ptr %6, i32 0, i32 0
  %8 = getelementptr inbounds nuw %struct.anon, ptr %7, i32 0, i32 4
  store i8 0, ptr %8, align 1, !tbaa !51
  br label %13

9:                                                ; preds = %1
  %10 = load ptr, ptr %2, align 8, !tbaa !78
  %11 = getelementptr inbounds nuw %struct.agxbuf, ptr %10, i32 0, i32 0
  %12 = getelementptr inbounds nuw %struct.anon, ptr %11, i32 0, i32 1
  store i64 0, ptr %12, align 8, !tbaa !51
  br label %13

13:                                               ; preds = %9, %5
  ret void
}

; Function Attrs: inlinehint nounwind uwtable
define internal i32 @agxbputc(ptr noundef %0, i8 noundef signext %1) #5 {
  %3 = alloca ptr, align 8
  %4 = alloca i8, align 1
  %5 = alloca i64, align 8
  store ptr %0, ptr %3, align 8, !tbaa !78
  store i8 %1, ptr %4, align 1, !tbaa !51
  %6 = load ptr, ptr %3, align 8, !tbaa !78
  %7 = call i64 @agxblen(ptr noundef %6)
  %8 = load ptr, ptr %3, align 8, !tbaa !78
  %9 = call i64 @agxbsizeof(ptr noundef %8)
  %10 = icmp uge i64 %7, %9
  br i1 %10, label %11, label %13

11:                                               ; preds = %2
  %12 = load ptr, ptr %3, align 8, !tbaa !78
  call void @agxbmore(ptr noundef %12, i64 noundef 1)
  br label %13

13:                                               ; preds = %11, %2
  call void @llvm.lifetime.start.p0(i64 8, ptr %5) #16
  %14 = load ptr, ptr %3, align 8, !tbaa !78
  %15 = call i64 @agxblen(ptr noundef %14)
  store i64 %15, ptr %5, align 8, !tbaa !52
  %16 = load ptr, ptr %3, align 8, !tbaa !78
  %17 = call zeroext i1 @agxbuf_is_inline(ptr noundef %16)
  br i1 %17, label %18, label %29

18:                                               ; preds = %13
  %19 = load i8, ptr %4, align 1, !tbaa !51
  %20 = load ptr, ptr %3, align 8, !tbaa !78
  %21 = getelementptr inbounds nuw %struct.agxbuf, ptr %20, i32 0, i32 0
  %22 = load i64, ptr %5, align 8, !tbaa !52
  %23 = getelementptr inbounds nuw [31 x i8], ptr %21, i64 0, i64 %22
  store i8 %19, ptr %23, align 1, !tbaa !51
  %24 = load ptr, ptr %3, align 8, !tbaa !78
  %25 = getelementptr inbounds nuw %struct.agxbuf, ptr %24, i32 0, i32 0
  %26 = getelementptr inbounds nuw %struct.anon, ptr %25, i32 0, i32 4
  %27 = load i8, ptr %26, align 1, !tbaa !51
  %28 = add i8 %27, 1
  store i8 %28, ptr %26, align 1, !tbaa !51
  br label %42

29:                                               ; preds = %13
  %30 = load i8, ptr %4, align 1, !tbaa !51
  %31 = load ptr, ptr %3, align 8, !tbaa !78
  %32 = getelementptr inbounds nuw %struct.agxbuf, ptr %31, i32 0, i32 0
  %33 = getelementptr inbounds nuw %struct.anon, ptr %32, i32 0, i32 0
  %34 = load ptr, ptr %33, align 8, !tbaa !51
  %35 = load i64, ptr %5, align 8, !tbaa !52
  %36 = getelementptr inbounds nuw i8, ptr %34, i64 %35
  store i8 %30, ptr %36, align 1, !tbaa !51
  %37 = load ptr, ptr %3, align 8, !tbaa !78
  %38 = getelementptr inbounds nuw %struct.agxbuf, ptr %37, i32 0, i32 0
  %39 = getelementptr inbounds nuw %struct.anon, ptr %38, i32 0, i32 1
  %40 = load i64, ptr %39, align 8, !tbaa !51
  %41 = add i64 %40, 1
  store i64 %41, ptr %39, align 8, !tbaa !51
  br label %42

42:                                               ; preds = %29, %18
  call void @llvm.lifetime.end.p0(i64 8, ptr %5) #16
  ret i32 0
}

; Function Attrs: inlinehint nounwind uwtable
define internal zeroext i1 @agxbuf_is_inline(ptr noundef %0) #5 {
  %2 = alloca ptr, align 8
  store ptr %0, ptr %2, align 8, !tbaa !78
  %3 = load ptr, ptr %2, align 8, !tbaa !78
  %4 = getelementptr inbounds nuw %struct.agxbuf, ptr %3, i32 0, i32 0
  %5 = getelementptr inbounds nuw %struct.anon, ptr %4, i32 0, i32 4
  %6 = load i8, ptr %5, align 1, !tbaa !51
  %7 = zext i8 %6 to i32
  %8 = icmp slt i32 %7, 255
  ret i1 %8
}

; Function Attrs: inlinehint nounwind uwtable
define internal i64 @agxblen(ptr noundef %0) #5 {
  %2 = alloca i64, align 8
  %3 = alloca ptr, align 8
  store ptr %0, ptr %3, align 8, !tbaa !78
  %4 = load ptr, ptr %3, align 8, !tbaa !78
  %5 = call zeroext i1 @agxbuf_is_inline(ptr noundef %4)
  br i1 %5, label %6, label %14

6:                                                ; preds = %1
  %7 = load ptr, ptr %3, align 8, !tbaa !78
  %8 = getelementptr inbounds nuw %struct.agxbuf, ptr %7, i32 0, i32 0
  %9 = getelementptr inbounds nuw %struct.anon, ptr %8, i32 0, i32 4
  %10 = load i8, ptr %9, align 1, !tbaa !51
  %11 = zext i8 %10 to i32
  %12 = sub nsw i32 %11, 0
  %13 = sext i32 %12 to i64
  store i64 %13, ptr %2, align 8
  br label %19

14:                                               ; preds = %1
  %15 = load ptr, ptr %3, align 8, !tbaa !78
  %16 = getelementptr inbounds nuw %struct.agxbuf, ptr %15, i32 0, i32 0
  %17 = getelementptr inbounds nuw %struct.anon, ptr %16, i32 0, i32 1
  %18 = load i64, ptr %17, align 8, !tbaa !51
  store i64 %18, ptr %2, align 8
  br label %19

19:                                               ; preds = %14, %6
  %20 = load i64, ptr %2, align 8
  ret i64 %20
}

; Function Attrs: inlinehint nounwind uwtable
define internal i64 @agxbsizeof(ptr noundef %0) #5 {
  %2 = alloca i64, align 8
  %3 = alloca ptr, align 8
  store ptr %0, ptr %3, align 8, !tbaa !78
  %4 = load ptr, ptr %3, align 8, !tbaa !78
  %5 = call zeroext i1 @agxbuf_is_inline(ptr noundef %4)
  br i1 %5, label %6, label %7

6:                                                ; preds = %1
  store i64 31, ptr %2, align 8
  br label %12

7:                                                ; preds = %1
  %8 = load ptr, ptr %3, align 8, !tbaa !78
  %9 = getelementptr inbounds nuw %struct.agxbuf, ptr %8, i32 0, i32 0
  %10 = getelementptr inbounds nuw %struct.anon, ptr %9, i32 0, i32 2
  %11 = load i64, ptr %10, align 8, !tbaa !51
  store i64 %11, ptr %2, align 8
  br label %12

12:                                               ; preds = %7, %6
  %13 = load i64, ptr %2, align 8
  ret i64 %13
}

; Function Attrs: inlinehint nounwind uwtable
define internal void @agxbfree(ptr noundef %0) #5 {
  %2 = alloca ptr, align 8
  store ptr %0, ptr %2, align 8, !tbaa !78
  %3 = load ptr, ptr %2, align 8, !tbaa !78
  %4 = getelementptr inbounds nuw %struct.agxbuf, ptr %3, i32 0, i32 0
  %5 = getelementptr inbounds nuw %struct.anon, ptr %4, i32 0, i32 4
  %6 = load i8, ptr %5, align 1, !tbaa !51
  %7 = zext i8 %6 to i32
  %8 = icmp eq i32 %7, 255
  br i1 %8, label %9, label %14

9:                                                ; preds = %1
  %10 = load ptr, ptr %2, align 8, !tbaa !78
  %11 = getelementptr inbounds nuw %struct.agxbuf, ptr %10, i32 0, i32 0
  %12 = getelementptr inbounds nuw %struct.anon, ptr %11, i32 0, i32 0
  %13 = load ptr, ptr %12, align 8, !tbaa !51
  call void @free(ptr noundef %13) #16
  br label %14

14:                                               ; preds = %9, %1
  ret void
}

; Function Attrs: inlinehint nounwind uwtable
define internal ptr @agxbuse(ptr noundef %0) #5 {
  %2 = alloca ptr, align 8
  store ptr %0, ptr %2, align 8, !tbaa !78
  %3 = load ptr, ptr %2, align 8, !tbaa !78
  %4 = call zeroext i1 @agxbuf_is_inline(ptr noundef %3)
  br i1 %4, label %5, label %9

5:                                                ; preds = %1
  %6 = load ptr, ptr %2, align 8, !tbaa !78
  %7 = call i64 @agxblen(ptr noundef %6)
  %8 = icmp ne i64 %7, 31
  br i1 %8, label %9, label %12

9:                                                ; preds = %5, %1
  %10 = load ptr, ptr %2, align 8, !tbaa !78
  %11 = call i32 @agxbputc(ptr noundef %10, i8 noundef signext 0)
  br label %13

12:                                               ; preds = %5
  br label %13

13:                                               ; preds = %12, %9
  %14 = load ptr, ptr %2, align 8, !tbaa !78
  call void @agxbclear(ptr noundef %14)
  %15 = load ptr, ptr %2, align 8, !tbaa !78
  %16 = call ptr @agxbstart(ptr noundef %15)
  ret ptr %16
}

; Function Attrs: inlinehint nounwind uwtable
define internal i64 @agxbput(ptr noundef %0, ptr noundef %1) #5 {
  %3 = alloca ptr, align 8
  %4 = alloca ptr, align 8
  %5 = alloca i64, align 8
  store ptr %0, ptr %3, align 8, !tbaa !78
  store ptr %1, ptr %4, align 8, !tbaa !3
  call void @llvm.lifetime.start.p0(i64 8, ptr %5) #16
  %6 = load ptr, ptr %4, align 8, !tbaa !3
  %7 = call i64 @strlen(ptr noundef %6) #19
  store i64 %7, ptr %5, align 8, !tbaa !52
  %8 = load ptr, ptr %3, align 8, !tbaa !78
  %9 = load ptr, ptr %4, align 8, !tbaa !3
  %10 = load i64, ptr %5, align 8, !tbaa !52
  %11 = call i64 @agxbput_n(ptr noundef %8, ptr noundef %9, i64 noundef %10)
  call void @llvm.lifetime.end.p0(i64 8, ptr %5) #16
  ret i64 %11
}

; Function Attrs: inlinehint nounwind uwtable
define internal i64 @agxbput_n(ptr noundef %0, ptr noundef %1, i64 noundef %2) #5 {
  %4 = alloca i64, align 8
  %5 = alloca ptr, align 8
  %6 = alloca ptr, align 8
  %7 = alloca i64, align 8
  %8 = alloca i64, align 8
  store ptr %0, ptr %5, align 8, !tbaa !78
  store ptr %1, ptr %6, align 8, !tbaa !3
  store i64 %2, ptr %7, align 8, !tbaa !52
  %9 = load i64, ptr %7, align 8, !tbaa !52
  %10 = icmp eq i64 %9, 0
  br i1 %10, label %11, label %12

11:                                               ; preds = %3
  store i64 0, ptr %4, align 8
  br label %62

12:                                               ; preds = %3
  %13 = load i64, ptr %7, align 8, !tbaa !52
  %14 = load ptr, ptr %5, align 8, !tbaa !78
  %15 = call i64 @agxbsizeof(ptr noundef %14)
  %16 = load ptr, ptr %5, align 8, !tbaa !78
  %17 = call i64 @agxblen(ptr noundef %16)
  %18 = sub i64 %15, %17
  %19 = icmp ugt i64 %13, %18
  br i1 %19, label %20, label %23

20:                                               ; preds = %12
  %21 = load ptr, ptr %5, align 8, !tbaa !78
  %22 = load i64, ptr %7, align 8, !tbaa !52
  call void @agxbmore(ptr noundef %21, i64 noundef %22)
  br label %23

23:                                               ; preds = %20, %12
  call void @llvm.lifetime.start.p0(i64 8, ptr %8) #16
  %24 = load ptr, ptr %5, align 8, !tbaa !78
  %25 = call i64 @agxblen(ptr noundef %24)
  store i64 %25, ptr %8, align 8, !tbaa !52
  %26 = load ptr, ptr %5, align 8, !tbaa !78
  %27 = call zeroext i1 @agxbuf_is_inline(ptr noundef %26)
  br i1 %27, label %28, label %45

28:                                               ; preds = %23
  %29 = load ptr, ptr %5, align 8, !tbaa !78
  %30 = getelementptr inbounds nuw %struct.agxbuf, ptr %29, i32 0, i32 0
  %31 = load i64, ptr %8, align 8, !tbaa !52
  %32 = getelementptr inbounds nuw [31 x i8], ptr %30, i64 0, i64 %31
  %33 = load ptr, ptr %6, align 8, !tbaa !3
  %34 = load i64, ptr %7, align 8, !tbaa !52
  call void @llvm.memcpy.p0.p0.i64(ptr align 1 %32, ptr align 1 %33, i64 %34, i1 false)
  %35 = load i64, ptr %7, align 8, !tbaa !52
  %36 = trunc i64 %35 to i8
  %37 = zext i8 %36 to i32
  %38 = load ptr, ptr %5, align 8, !tbaa !78
  %39 = getelementptr inbounds nuw %struct.agxbuf, ptr %38, i32 0, i32 0
  %40 = getelementptr inbounds nuw %struct.anon, ptr %39, i32 0, i32 4
  %41 = load i8, ptr %40, align 1, !tbaa !51
  %42 = zext i8 %41 to i32
  %43 = add nsw i32 %42, %37
  %44 = trunc i32 %43 to i8
  store i8 %44, ptr %40, align 1, !tbaa !51
  br label %60

45:                                               ; preds = %23
  %46 = load ptr, ptr %5, align 8, !tbaa !78
  %47 = getelementptr inbounds nuw %struct.agxbuf, ptr %46, i32 0, i32 0
  %48 = getelementptr inbounds nuw %struct.anon, ptr %47, i32 0, i32 0
  %49 = load ptr, ptr %48, align 8, !tbaa !51
  %50 = load i64, ptr %8, align 8, !tbaa !52
  %51 = getelementptr inbounds nuw i8, ptr %49, i64 %50
  %52 = load ptr, ptr %6, align 8, !tbaa !3
  %53 = load i64, ptr %7, align 8, !tbaa !52
  call void @llvm.memcpy.p0.p0.i64(ptr align 1 %51, ptr align 1 %52, i64 %53, i1 false)
  %54 = load i64, ptr %7, align 8, !tbaa !52
  %55 = load ptr, ptr %5, align 8, !tbaa !78
  %56 = getelementptr inbounds nuw %struct.agxbuf, ptr %55, i32 0, i32 0
  %57 = getelementptr inbounds nuw %struct.anon, ptr %56, i32 0, i32 1
  %58 = load i64, ptr %57, align 8, !tbaa !51
  %59 = add i64 %58, %54
  store i64 %59, ptr %57, align 8, !tbaa !51
  br label %60

60:                                               ; preds = %45, %28
  %61 = load i64, ptr %7, align 8, !tbaa !52
  store i64 %61, ptr %4, align 8
  call void @llvm.lifetime.end.p0(i64 8, ptr %8) #16
  br label %62

62:                                               ; preds = %60, %11
  %63 = load i64, ptr %4, align 8
  ret i64 %63
}

; Function Attrs: nounwind uwtable
define internal void @global_def(ptr noundef %0, i32 noundef %1) #0 {
  %3 = alloca ptr, align 8
  %4 = alloca i32, align 4
  %5 = alloca ptr, align 8
  %6 = alloca ptr, align 8
  %7 = alloca %struct.agxbuf, align 8
  %8 = alloca ptr, align 8
  store ptr %0, ptr %3, align 8, !tbaa !3
  store i32 %1, ptr %4, align 4, !tbaa !8
  call void @llvm.lifetime.start.p0(i64 8, ptr %5) #16
  call void @llvm.lifetime.start.p0(i64 8, ptr %6) #16
  store ptr @.str.136, ptr %6, align 8, !tbaa !3
  call void @llvm.lifetime.start.p0(i64 32, ptr %7) #16
  call void @llvm.memset.p0.i64(ptr align 8 %7, i8 0, i64 32, i1 false)
  call void @llvm.lifetime.start.p0(i64 8, ptr %8) #16
  %9 = load ptr, ptr %3, align 8, !tbaa !3
  %10 = call ptr @strchr(ptr noundef %9, i32 noundef 61) #19
  store ptr %10, ptr %5, align 8, !tbaa !3
  %11 = icmp ne ptr %10, null
  br i1 %11, label %12, label %22

12:                                               ; preds = %2
  %13 = load ptr, ptr %3, align 8, !tbaa !3
  %14 = load ptr, ptr %5, align 8, !tbaa !3
  %15 = load ptr, ptr %3, align 8, !tbaa !3
  %16 = ptrtoint ptr %14 to i64
  %17 = ptrtoint ptr %15 to i64
  %18 = sub i64 %16, %17
  %19 = call i64 @agxbput_n(ptr noundef %7, ptr noundef %13, i64 noundef %18)
  %20 = load ptr, ptr %5, align 8, !tbaa !3
  %21 = getelementptr inbounds i8, ptr %20, i64 1
  store ptr %21, ptr %6, align 8, !tbaa !3
  br label %25

22:                                               ; preds = %2
  %23 = load ptr, ptr %3, align 8, !tbaa !3
  %24 = call i64 @agxbput(ptr noundef %7, ptr noundef %23)
  br label %25

25:                                               ; preds = %22, %12
  %26 = load i32, ptr %4, align 4, !tbaa !8
  %27 = call ptr @agxbuse(ptr noundef %7)
  %28 = load ptr, ptr %6, align 8, !tbaa !3
  %29 = call ptr @agattr(ptr noundef null, i32 noundef %26, ptr noundef %27, ptr noundef %28)
  store ptr %29, ptr %8, align 8, !tbaa !79
  %30 = load ptr, ptr %8, align 8, !tbaa !79
  %31 = getelementptr inbounds nuw %struct.Agsym_s, ptr %30, i32 0, i32 5
  store i8 1, ptr %31, align 1, !tbaa !81
  call void @agxbfree(ptr noundef %7)
  call void @llvm.lifetime.end.p0(i64 8, ptr %8) #16
  call void @llvm.lifetime.end.p0(i64 32, ptr %7) #16
  call void @llvm.lifetime.end.p0(i64 8, ptr %6) #16
  call void @llvm.lifetime.end.p0(i64 8, ptr %5) #16
  ret void
}