; Function Attrs: nounwind uwtable
define internal fastcc void @global_def(ptr noundef nonnull %0, i32 noundef range(i32 0, 3) %1) unnamed_addr #4 {
  %3 = alloca %struct.agxbuf, align 8
  call void @llvm.lifetime.start.p0(i64 32, ptr nonnull %3) #24
  call void @llvm.memset.p0.i64(ptr noundef nonnull align 8 dereferenceable(32) %3, i8 0, i64 32, i1 false)
  %4 = tail call ptr @strchr(ptr noundef nonnull dereferenceable(1) %0, i32 noundef 61) #30
  %.not = icmp eq ptr %4, null
  br i1 %.not, label %25, label %5

5:                                                ; preds = %2
  %6 = ptrtoint ptr %4 to i64
  %7 = ptrtoint ptr %0 to i64
  %8 = sub i64 %6, %7
  %9 = icmp eq ptr %4, %0
  br i1 %9, label %agxbput_n.exit, label %agxblen.exit.i

agxblen.exit.i:                                   ; preds = %5
  %10 = getelementptr inbounds nuw i8, ptr %3, i64 31
  %11 = getelementptr inbounds nuw i8, ptr %3, i64 8
  %12 = icmp ugt i64 %8, 31
  br i1 %12, label %13, label %.thread

13:                                               ; preds = %agxblen.exit.i
  call fastcc void @agxbmore(ptr noundef nonnull %3, i64 noundef %8)
  %.val.i25.pre.i = load i8, ptr %10, align 1, !tbaa !41
  %.not.i26.i = icmp eq i8 %.val.i25.pre.i, -1
  br i1 %.not.i26.i, label %19, label %.thread

.thread:                                          ; preds = %agxblen.exit.i, %13
  %.val.i25.i16 = phi i8 [ %.val.i25.pre.i, %13 ], [ 0, %agxblen.exit.i ]
  %14 = zext i8 %.val.i25.i16 to i64
  %15 = getelementptr inbounds nuw [31 x i8], ptr %3, i64 0, i64 %14
  call void @llvm.memcpy.p0.p0.i64(ptr nonnull align 1 %15, ptr nonnull readonly align 1 %0, i64 %8, i1 false)
  %16 = trunc i64 %8 to i8
  %17 = load i8, ptr %10, align 1, !tbaa !41
  %18 = add i8 %17, %16
  store i8 %18, ptr %10, align 1, !tbaa !41
  br label %agxbput_n.exit

19:                                               ; preds = %13
  %20 = load i64, ptr %11, align 8, !tbaa !41
  %21 = load ptr, ptr %3, align 8, !tbaa !41
  %22 = getelementptr inbounds nuw i8, ptr %21, i64 %20
  tail call void @llvm.memcpy.p0.p0.i64(ptr align 1 %22, ptr nonnull readonly align 1 %0, i64 %8, i1 false)
  %23 = add i64 %20, %8
  store i64 %23, ptr %11, align 8, !tbaa !41
  br label %agxbput_n.exit

agxbput_n.exit:                                   ; preds = %5, %.thread, %19
  %.val.i13 = phi i8 [ 0, %5 ], [ %18, %.thread ], [ -1, %19 ]
  %24 = getelementptr inbounds nuw i8, ptr %4, i64 1
  br label %agxbput.exit

25:                                               ; preds = %2
  %26 = tail call i64 @strlen(ptr noundef nonnull readonly dereferenceable(1) %0) #30
  %27 = icmp eq i64 %26, 0
  %28 = getelementptr inbounds nuw i8, ptr %3, i64 31
  br i1 %27, label %agxblen.exit.i.i11, label %agxblen.exit.i.i

agxblen.exit.i.i:                                 ; preds = %25
  %29 = getelementptr inbounds nuw i8, ptr %3, i64 8
  %30 = icmp ugt i64 %26, 31
  br i1 %30, label %31, label %.thread17

31:                                               ; preds = %agxblen.exit.i.i
  call fastcc void @agxbmore(ptr noundef nonnull %3, i64 noundef %26)
  %.val.i25.pre.i.i = load i8, ptr %28, align 1, !tbaa !41
  %.not.i26.i.i = icmp eq i8 %.val.i25.pre.i.i, -1
  br i1 %.not.i26.i.i, label %agxbput.exit.thread29, label %.thread17

.thread17:                                        ; preds = %agxblen.exit.i.i, %31
  %.val.i25.i.i20 = phi i8 [ %.val.i25.pre.i.i, %31 ], [ 0, %agxblen.exit.i.i ]
  %32 = zext i8 %.val.i25.i.i20 to i64
  %33 = getelementptr inbounds nuw [31 x i8], ptr %3, i64 0, i64 %32
  call void @llvm.memcpy.p0.p0.i64(ptr nonnull align 1 %33, ptr nonnull readonly align 1 %0, i64 %26, i1 false)
  %34 = trunc i64 %26 to i8
  %35 = load i8, ptr %28, align 1, !tbaa !41
  %36 = add i8 %35, %34
  store i8 %36, ptr %28, align 1, !tbaa !41
  br label %agxbput.exit

agxbput.exit.thread29:                            ; preds = %31
  %37 = load i64, ptr %29, align 8, !tbaa !41
  %38 = load ptr, ptr %3, align 8, !tbaa !41
  %39 = getelementptr inbounds nuw i8, ptr %38, i64 %37
  tail call void @llvm.memcpy.p0.p0.i64(ptr align 1 %39, ptr nonnull readonly align 1 %0, i64 %26, i1 false)
  %40 = add i64 %37, %26
  store i64 %40, ptr %29, align 8, !tbaa !41
  %41 = getelementptr inbounds nuw i8, ptr %3, i64 31
  br label %45

agxbput.exit:                                     ; preds = %.thread17, %agxbput_n.exit
  %.val.i = phi i8 [ %.val.i13, %agxbput_n.exit ], [ %36, %.thread17 ]
  %.0 = phi ptr [ %24, %agxbput_n.exit ], [ @.str.136, %.thread17 ]
  %42 = getelementptr inbounds nuw i8, ptr %3, i64 31
  switch i8 %.val.i, label %agxblen.exit.i.i11 [
    i8 -1, label %45
    i8 31, label %agxbclear.exit.thread.i
  ]

agxblen.exit.i.i11:                               ; preds = %25, %agxbput.exit
  %43 = phi ptr [ %42, %agxbput.exit ], [ %28, %25 ]
  %.028 = phi ptr [ %.0, %agxbput.exit ], [ @.str.136, %25 ]
  %.val.i24 = phi i8 [ %.val.i, %agxbput.exit ], [ 0, %25 ]
  %44 = zext i8 %.val.i24 to i64
  br label %agxbsizeof.exit.i.i10

45:                                               ; preds = %agxbput.exit.thread29, %agxbput.exit
  %46 = phi ptr [ %41, %agxbput.exit.thread29 ], [ %42, %agxbput.exit ]
  %.033 = phi ptr [ @.str.136, %agxbput.exit.thread29 ], [ %.0, %agxbput.exit ]
  %47 = getelementptr inbounds nuw i8, ptr %3, i64 8
  %48 = load i64, ptr %47, align 8, !tbaa !41
  %49 = getelementptr inbounds nuw i8, ptr %3, i64 16
  %50 = load i64, ptr %49, align 8, !tbaa !41
  br label %agxbsizeof.exit.i.i10

agxbsizeof.exit.i.i10:                            ; preds = %45, %agxblen.exit.i.i11
  %51 = phi ptr [ %46, %45 ], [ %43, %agxblen.exit.i.i11 ]
  %.027 = phi ptr [ %.033, %45 ], [ %.028, %agxblen.exit.i.i11 ]
  %.val.i23 = phi i8 [ -1, %45 ], [ %.val.i24, %agxblen.exit.i.i11 ]
  %.0.i20.i.i = phi i64 [ %48, %45 ], [ %44, %agxblen.exit.i.i11 ]
  %.0.i14.i.i = phi i64 [ %50, %45 ], [ 31, %agxblen.exit.i.i11 ]
  %.not.i5.i = icmp ult i64 %.0.i20.i.i, %.0.i14.i.i
  br i1 %.not.i5.i, label %53, label %52

52:                                               ; preds = %agxbsizeof.exit.i.i10
  call fastcc void @agxbmore(ptr noundef nonnull %3, i64 noundef 1)
  %.val.i15.pre.i.i = load i8, ptr %51, align 1, !tbaa !41
  br label %53

53:                                               ; preds = %52, %agxbsizeof.exit.i.i10
  %.val.i6.pr.i = phi i8 [ %.val.i15.pre.i.i, %52 ], [ %.val.i23, %agxbsizeof.exit.i.i10 ]
  %.not.i16.i.i = icmp eq i8 %.val.i6.pr.i, -1
  br i1 %.not.i16.i.i, label %agxbputc.exit.i.thread, label %agxbputc.exit.i

agxbputc.exit.i.thread:                           ; preds = %53
  %54 = getelementptr inbounds nuw i8, ptr %3, i64 8
  %55 = load i64, ptr %54, align 8, !tbaa !41
  %56 = load ptr, ptr %3, align 8, !tbaa !41
  %57 = getelementptr inbounds nuw i8, ptr %56, i64 %55
  store i8 0, ptr %57, align 1, !tbaa !41
  br label %64

agxbputc.exit.i:                                  ; preds = %53
  %58 = zext i8 %.val.i6.pr.i to i64
  %59 = getelementptr inbounds nuw [31 x i8], ptr %3, i64 0, i64 %58
  store i8 0, ptr %59, align 1, !tbaa !41
  %60 = load i8, ptr %51, align 1, !tbaa !41
  %61 = add i8 %60, 1
  store i8 %61, ptr %51, align 1, !tbaa !41
  %62 = icmp eq i8 %61, -1
  br i1 %62, label %64, label %agxbclear.exit.thread.i

agxbclear.exit.thread.i:                          ; preds = %agxbputc.exit.i, %agxbput.exit
  %63 = phi ptr [ %51, %agxbputc.exit.i ], [ %42, %agxbput.exit ]
  %.026 = phi ptr [ %.027, %agxbputc.exit.i ], [ %.0, %agxbput.exit ]
  store i8 0, ptr %63, align 1, !tbaa !41
  br label %agxbuse.exit

64:                                               ; preds = %agxbputc.exit.i.thread, %agxbputc.exit.i
  %65 = getelementptr inbounds nuw i8, ptr %3, i64 8
  store i64 0, ptr %65, align 8, !tbaa !41
  %66 = load ptr, ptr %3, align 8, !tbaa !41
  br label %agxbuse.exit

agxbuse.exit:                                     ; preds = %agxbclear.exit.thread.i, %64
  %67 = phi ptr [ %51, %64 ], [ %63, %agxbclear.exit.thread.i ]
  %.025 = phi ptr [ %.027, %64 ], [ %.026, %agxbclear.exit.thread.i ]
  %68 = phi ptr [ %66, %64 ], [ %3, %agxbclear.exit.thread.i ]
  %69 = call ptr @agattr(ptr noundef null, i32 noundef %1, ptr noundef %68, ptr noundef nonnull %.025) #24
  %70 = getelementptr inbounds nuw i8, ptr %69, i64 37
  store i8 1, ptr %70, align 1, !tbaa !76
  %.val9 = load i8, ptr %67, align 1, !tbaa !41
  %71 = icmp eq i8 %.val9, -1
  br i1 %71, label %72, label %agxbfree.exit

72:                                               ; preds = %agxbuse.exit
  %.val = load ptr, ptr %3, align 8
  call void @free(ptr noundef %.val) #24
  br label %agxbfree.exit

agxbfree.exit:                                    ; preds = %agxbuse.exit, %72
  call void @llvm.lifetime.end.p0(i64 32, ptr nonnull %3) #24
  ret void
}